target datalayout = "e-m:e-p270:32:32-p271:32:32-p272:64:64-i64:64-i128:128-f80:128-n8:16:32:64-S128"
target triple = "x86_64-pc-linux-gnu"

%struct.Vec_Int_t_ = type { i32, i32, ptr }

@.str = private unnamed_addr constant [4 x i8] c"%d \00", align 1
@.str.1 = private unnamed_addr constant [2 x i8] c"\0A\00", align 1

; Function Attrs: inlinehint nounwind uwtable
define internal i32 @Vec_IntEntry(ptr noundef %0, i32 noundef %1) #2 {
  %3 = alloca ptr, align 8
  %4 = alloca i32, align 4
  store ptr %0, ptr %3, align 8, !tbaa !8
  store i32 %1, ptr %4, align 4, !tbaa !10
  %5 = load ptr, ptr %3, align 8, !tbaa !8
  %6 = getelementptr inbounds nuw %struct.Vec_Int_t_, ptr %5, i32 0, i32 2
  %7 = load ptr, ptr %6, align 8, !tbaa !17
  %8 = load i32, ptr %4, align 4, !tbaa !10
  %9 = sext i32 %8 to i64
  %10 = getelementptr inbounds i32, ptr %7, i64 %9
  %11 = load i32, ptr %10, align 4, !tbaa !10
  ret i32 %11
}

; Function Attrs: inlinehint nounwind uwtable
define internal i32 @Vec_IntSize(ptr noundef %0) #2 {
  %2 = alloca ptr, align 8
  store ptr %0, ptr %2, align 8, !tbaa !8
  %3 = load ptr, ptr %2, align 8, !tbaa !8
  %4 = getelementptr inbounds nuw %struct.Vec_Int_t_, ptr %3, i32 0, i32 1
  %5 = load i32, ptr %4, align 4, !tbaa !14
  ret i32 %5
}

; Function Attrs: nounwind uwtable
define void @Acec_ManPrintRanks2(ptr noundef %0) #0 {
  %2 = alloca ptr, align 8
  %3 = alloca i32, align 4
  %4 = alloca i32, align 4
  %5 = alloca i32, align 4
  store ptr %0, ptr %2, align 8, !tbaa !8
  call void @llvm.lifetime.start.p0(i64 4, ptr %3) #11
  call void @llvm.lifetime.start.p0(i64 4, ptr %4) #11
  call void @llvm.lifetime.start.p0(i64 4, ptr %5) #11
  store i32 0, ptr %3, align 4, !tbaa !10
  br label %6

6:                                                ; preds = %26, %1
  %7 = load i32, ptr %3, align 4, !tbaa !10
  %8 = add nsw i32 %7, 1
  %9 = load ptr, ptr %2, align 8, !tbaa !8
  %10 = call i32 @Vec_IntSize(ptr noundef %9)
  %11 = icmp slt i32 %8, %10
  br i1 %11, label %12, label %21

12:                                               ; preds = %6
  %13 = load ptr, ptr %2, align 8, !tbaa !8
  %14 = load i32, ptr %3, align 4, !tbaa !10
  %15 = call i32 @Vec_IntEntry(ptr noundef %13, i32 noundef %14)
  store i32 %15, ptr %4, align 4, !tbaa !10
  br i1 true, label %16, label %21

16:                                               ; preds = %12
  %17 = load ptr, ptr %2, align 8, !tbaa !8
  %18 = load i32, ptr %3, align 4, !tbaa !10
  %19 = add nsw i32 %18, 1
  %20 = call i32 @Vec_IntEntry(ptr noundef %17, i32 noundef %19)
  store i32 %20, ptr %5, align 4, !tbaa !10
  br label %21

21:                                               ; preds = %16, %12, %6
  %22 = phi i1 [ false, %12 ], [ false, %6 ], [ true, %16 ]
  br i1 %22, label %23, label %29

23:                                               ; preds = %21
  %24 = load i32, ptr %5, align 4, !tbaa !10
  %25 = call i32 (ptr, ...) @printf(ptr noundef @.str, i32 noundef %24)
  br label %26

26:                                               ; preds = %23
  %27 = load i32, ptr %3, align 4, !tbaa !10
  %28 = add nsw i32 %27, 2
  store i32 %28, ptr %3, align 4, !tbaa !10
  br label %6, !llvm.loop !72

29:                                               ; preds = %21
  %30 = call i32 (ptr, ...) @printf(ptr noundef @.str.1)
  call void @llvm.lifetime.end.p0(i64 4, ptr %5) #11
  call void @llvm.lifetime.end.p0(i64 4, ptr %4) #11
  call void @llvm.lifetime.end.p0(i64 4, ptr %3) #11
  ret void
}