; Function Attrs: nofree nounwind uwtable
define void @Acec_ManPrintRanks2(ptr noundef readonly captures(none) %0) local_unnamed_addr #0 {
  %2 = getelementptr i8, ptr %0, i64 4
  %.val10 = load i32, ptr %2, align 4, !tbaa !30
  %3 = icmp sgt i32 %.val10, 1
  br i1 %3, label %.lr.ph, label %.critedge

.lr.ph:                                           ; preds = %1
  %4 = getelementptr i8, ptr %0, i64 8
  br label %5

5:                                                ; preds = %.lr.ph, %5
  %indvars.iv = phi i64 [ 0, %.lr.ph ], [ %indvars.iv.next, %5 ]
  %6 = or disjoint i64 %indvars.iv, 1
  %.val9 = load ptr, ptr %4, align 8, !tbaa !29
  %7 = getelementptr inbounds nuw i32, ptr %.val9, i64 %6
  %8 = load i32, ptr %7, align 4, !tbaa !31
  %9 = tail call i32 (ptr, ...) @printf(ptr noundef nonnull dereferenceable(1) @.str, i32 noundef %8)
  %indvars.iv.next = add nuw nsw i64 %indvars.iv, 2
  %.val = load i32, ptr %2, align 4, !tbaa !30
  %10 = trunc i64 %indvars.iv.next to i32
  %11 = or disjoint i32 %10, 1
  %12 = icmp slt i32 %11, %.val
  br i1 %12, label %5, label %.critedge, !llvm.loop !67

.critedge:                                        ; preds = %5, %1
  %putchar = tail call i32 @putchar(i32 10)
  ret void
}